target datalayout = "e-m:e-p270:32:32-p271:32:32-p272:64:64-i64:64-i128:128-f80:128-n8:16:32:64-S128"
target triple = "x86_64-pc-linux-gnu"

%struct.CORD_Pos = type { i64, i32, ptr, i64, i64, [49 x %struct.CORD_pe], [8 x i8] }
%struct.CORD_pe = type { ptr, i64 }

@stderr = external global ptr, align 8
@.str = private unnamed_addr constant [4 x i8] c"%s\0A\00", align 1
@.str.4 = private unnamed_addr constant [11 x i8] c"bad index?\00", align 1

; Function Attrs: nounwind uwtable
define signext i8 @CORD_fetch(ptr noundef %0, i64 noundef %1) #0 {
  %3 = alloca ptr, align 8
  %4 = alloca i64, align 8
  %5 = alloca [1 x %struct.CORD_Pos], align 16
  store ptr %0, ptr %3, align 8, !tbaa !3
  store i64 %1, ptr %4, align 8, !tbaa !11
  call void @llvm.lifetime.start.p0(i64 832, ptr %5) #9
  %6 = getelementptr inbounds [1 x %struct.CORD_Pos], ptr %5, i64 0, i64 0
  %7 = load ptr, ptr %3, align 8, !tbaa !3
  %8 = load i64, ptr %4, align 8, !tbaa !11
  call void @CORD_set_pos(ptr noundef %6, ptr noundef %7, i64 noundef %8)
  %9 = getelementptr inbounds [1 x %struct.CORD_Pos], ptr %5, i64 0, i64 0
  %10 = getelementptr inbounds nuw %struct.CORD_Pos, ptr %9, i32 0, i32 1
  %11 = load i32, ptr %10, align 8, !tbaa !17
  %12 = icmp ne i32 %11, 1431655765
  br i1 %12, label %16, label %13

13:                                               ; preds = %2
  %14 = load ptr, ptr @stderr, align 8, !tbaa !9
  %15 = call i32 (ptr, ptr, ...) @fprintf(ptr noundef %14, ptr noundef @.str, ptr noundef @.str.4) #9
  call void @abort() #11
  unreachable

16:                                               ; preds = %2
  %17 = getelementptr inbounds [1 x %struct.CORD_Pos], ptr %5, i64 0, i64 0
  %18 = getelementptr inbounds nuw %struct.CORD_Pos, ptr %17, i32 0, i32 4
  %19 = load i64, ptr %18, align 16, !tbaa !19
  %20 = icmp ne i64 %19, 0
  br i1 %20, label %21, label %35

21:                                               ; preds = %16
  %22 = getelementptr inbounds [1 x %struct.CORD_Pos], ptr %5, i64 0, i64 0
  %23 = getelementptr inbounds nuw %struct.CORD_Pos, ptr %22, i32 0, i32 2
  %24 = load ptr, ptr %23, align 16, !tbaa !21
  %25 = getelementptr inbounds [1 x %struct.CORD_Pos], ptr %5, i64 0, i64 0
  %26 = getelementptr inbounds nuw %struct.CORD_Pos, ptr %25, i32 0, i32 0
  %27 = load i64, ptr %26, align 16, !tbaa !20
  %28 = getelementptr inbounds [1 x %struct.CORD_Pos], ptr %5, i64 0, i64 0
  %29 = getelementptr inbounds nuw %struct.CORD_Pos, ptr %28, i32 0, i32 3
  %30 = load i64, ptr %29, align 8, !tbaa !22
  %31 = sub i64 %27, %30
  %32 = getelementptr inbounds nuw i8, ptr %24, i64 %31
  %33 = load i8, ptr %32, align 1, !tbaa !8
  %34 = sext i8 %33 to i32
  br label %39

35:                                               ; preds = %16
  %36 = getelementptr inbounds [1 x %struct.CORD_Pos], ptr %5, i64 0, i64 0
  %37 = call signext i8 @CORD__pos_fetch(ptr noundef %36)
  %38 = sext i8 %37 to i32
  br label %39

39:                                               ; preds = %35, %21
  %40 = phi i32 [ %34, %21 ], [ %38, %35 ]
  %41 = trunc i32 %40 to i8
  call void @llvm.lifetime.end.p0(i64 832, ptr %5) #9
  ret i8 %41
}