; Function Attrs: nounwind uwtable
define signext i8 @CORD_fetch(ptr noundef %0, i64 noundef %1) local_unnamed_addr #0 {
  %3 = alloca [1 x %struct.CORD_Pos], align 16
  call void @llvm.lifetime.start.p0(i64 832, ptr nonnull %3) #16
  call void @CORD_set_pos(ptr noundef nonnull %3, ptr noundef %0, i64 noundef %1) #16
  %4 = getelementptr inbounds nuw i8, ptr %3, i64 8
  %5 = load i32, ptr %4, align 8, !tbaa !13
  %.not = icmp eq i32 %5, 1431655765
  br i1 %.not, label %6, label %9

6:                                                ; preds = %2
  %7 = load ptr, ptr @stderr, align 8, !tbaa !3
  %8 = call i32 (ptr, ptr, ...) @fprintf(ptr noundef %7, ptr noundef nonnull @.str, ptr noundef nonnull @.str.4) #18
  call void @abort() #19
  unreachable

9:                                                ; preds = %2
  %10 = getelementptr inbounds nuw i8, ptr %3, i64 32
  %11 = load i64, ptr %10, align 16, !tbaa !17
  %.not1 = icmp eq i64 %11, 0
  br i1 %.not1, label %21, label %12

12:                                               ; preds = %9
  %13 = getelementptr inbounds nuw i8, ptr %3, i64 16
  %14 = load ptr, ptr %13, align 16, !tbaa !19
  %15 = load i64, ptr %3, align 16, !tbaa !18
  %16 = getelementptr inbounds nuw i8, ptr %3, i64 24
  %17 = load i64, ptr %16, align 8, !tbaa !20
  %18 = sub i64 %15, %17
  %19 = getelementptr inbounds nuw i8, ptr %14, i64 %18
  %20 = load i8, ptr %19, align 1, !tbaa !8
  br label %23

21:                                               ; preds = %9
  %22 = call signext i8 @CORD__pos_fetch(ptr noundef nonnull %3) #16
  br label %23

23:                                               ; preds = %21, %12
  %.in = phi i8 [ %20, %12 ], [ %22, %21 ]
  call void @llvm.lifetime.end.p0(i64 832, ptr nonnull %3) #16
  ret i8 %.in
}